target datalayout = "e-m:e-p270:32:32-p271:32:32-p272:64:64-i64:64-i128:128-f80:128-n8:16:32:64-S128"
target triple = "x86_64-pc-linux-gnu"

%struct._zend_array = type { %struct._zend_refcounted_h, %union.anon.0, i32, %union.anon.1, i32, i32, i32, i32, i64, ptr }
%struct._zend_refcounted_h = type { i32, %union.anon }
%union.anon = type { i32 }
%union.anon.0 = type { i32 }
%union.anon.1 = type { ptr }
%struct.pdo_sqlstate_info = type { [5 x i8], ptr }
%struct._zval_struct = type { %union._zend_value, %union.anon.3, %union.anon.6 }
%union._zend_value = type { i64 }
%union.anon.3 = type { i32 }
%union.anon.6 = type { i32 }

@err_hash = internal global %struct._zend_array zeroinitializer, align 8

; Function Attrs: nounwind uwtable
define hidden void @pdo_sqlstate_init_error_table() #0 {
  %1 = alloca ptr, align 8
  %2 = alloca ptr, align 8
  %3 = alloca ptr, align 8
  %4 = alloca i64, align 8
  %5 = alloca ptr, align 8
  %6 = alloca %struct._zval_struct, align 8
  %7 = alloca ptr, align 8
  %8 = alloca i64, align 8
  %9 = alloca ptr, align 8
  call void @_zend_hash_init(ptr noundef @err_hash, i32 noundef 266, ptr noundef null, i1 noundef zeroext true)
  store i64 0, ptr %8, align 8
  br label %10

10:                                               ; preds = %36, %0
  %11 = load i64, ptr %8, align 8
  %12 = icmp ult i64 %11, 266
  br i1 %12, label %13, label %39

13:                                               ; preds = %10
  %14 = load i64, ptr %8, align 8
  %15 = getelementptr inbounds [266 x %struct.pdo_sqlstate_info], ptr @err_initializer, i64 0, i64 %14
  store ptr %15, ptr %9, align 8
  %16 = load ptr, ptr %9, align 8
  %17 = getelementptr inbounds %struct.pdo_sqlstate_info, ptr %16, i32 0, i32 0
  %18 = getelementptr inbounds [5 x i8], ptr %17, i64 0, i64 0
  %19 = load ptr, ptr %9, align 8
  store ptr @err_hash, ptr %2, align 8
  store ptr %18, ptr %3, align 8
  store i64 5, ptr %4, align 8
  store ptr %19, ptr %5, align 8
  %20 = load ptr, ptr %5, align 8
  store ptr %20, ptr %6, align 8
  %21 = getelementptr inbounds %struct._zval_struct, ptr %6, i32 0, i32 1
  store i32 13, ptr %21, align 8
  %22 = load ptr, ptr %2, align 8
  %23 = load ptr, ptr %3, align 8
  %24 = load i64, ptr %4, align 8
  %25 = call ptr @zend_hash_str_add(ptr noundef %22, ptr noundef %23, i64 noundef %24, ptr noundef %6) #3
  store ptr %25, ptr %7, align 8
  %26 = load ptr, ptr %7, align 8
  %27 = icmp ne ptr %26, null
  br i1 %27, label %28, label %34

28:                                               ; preds = %13
  %29 = load ptr, ptr %7, align 8
  %30 = load ptr, ptr %29, align 8
  %31 = icmp ne ptr %30, null
  call void @llvm.assume(i1 %31)
  %32 = load ptr, ptr %7, align 8
  %33 = load ptr, ptr %32, align 8
  store ptr %33, ptr %1, align 8
  br label %35

34:                                               ; preds = %13
  store ptr null, ptr %1, align 8
  br label %35

35:                                               ; preds = %34, %28
  br label %36

36:                                               ; preds = %35
  %37 = load i64, ptr %8, align 8
  %38 = add i64 %37, 1
  store i64 %38, ptr %8, align 8
  br label %10

39:                                               ; preds = %10
  ret void
}