; Function Attrs: nounwind uwtable
define hidden void @pdo_sqlstate_init_error_table() local_unnamed_addr #0 {
  %1 = alloca %struct._zval_struct, align 8
  tail call void @_zend_hash_init(ptr noundef nonnull @err_hash, i32 noundef 266, ptr noundef null, i1 noundef zeroext true) #3
  %2 = getelementptr inbounds i8, ptr %1, i64 8
  br label %3

3:                                                ; preds = %0, %9
  %.012 = phi i64 [ 0, %0 ], [ %10, %9 ]
  %4 = getelementptr inbounds [266 x %struct.pdo_sqlstate_info], ptr @err_initializer, i64 0, i64 %.012
  store ptr %4, ptr %1, align 8
  store i32 13, ptr %2, align 8
  %5 = call ptr @zend_hash_str_add(ptr noundef nonnull @err_hash, ptr noundef nonnull %4, i64 noundef 5, ptr noundef nonnull %1) #3
  %.not = icmp eq ptr %5, null
  br i1 %.not, label %9, label %6

6:                                                ; preds = %3
  %7 = load ptr, ptr %5, align 8
  %8 = icmp ne ptr %7, null
  call void @llvm.assume(i1 %8)
  br label %9

9:                                                ; preds = %3, %6
  %10 = add nuw nsw i64 %.012, 1
  %exitcond.not = icmp eq i64 %10, 266
  br i1 %exitcond.not, label %11, label %3

11:                                               ; preds = %9
  ret void
}